target datalayout = "e-m:e-p270:32:32-p271:32:32-p272:64:64-i64:64-i128:128-f80:128-n8:16:32:64-S128"
target triple = "x86_64-pc-linux-gnu"

%class.cmUVPipeBuffer = type { %"struct.cm::uv_pipe_ptr", %"class.std::vector", %"class.std::function", %"class.std::function.0" }
%"struct.cm::uv_pipe_ptr" = type { %"class.cm::uv_handle_ptr_" }
%"class.cm::uv_handle_ptr_" = type { %"class.cm::uv_handle_ptr_base_" }
%"class.cm::uv_handle_ptr_base_" = type { %"class.std::shared_ptr" }
%"class.std::shared_ptr" = type { %"class.std::__shared_ptr" }
%"class.std::__shared_ptr" = type { ptr, %"class.std::__shared_count" }
%"class.std::__shared_count" = type { ptr }
%"class.std::vector" = type { %"struct.std::_Vector_base" }
%"struct.std::_Vector_base" = type { %"struct.std::_Vector_base<char, std::allocator<char>>::_Vector_impl" }
%"struct.std::_Vector_base<char, std::allocator<char>>::_Vector_impl" = type { %"struct.std::_Vector_base<char, std::allocator<char>>::_Vector_impl_data" }
%"struct.std::_Vector_base<char, std::allocator<char>>::_Vector_impl_data" = type { ptr, ptr, ptr }
%"class.std::function" = type { %"class.std::_Function_base", ptr }
%"class.std::_Function_base" = type { %"union.std::_Any_data", ptr }
%"union.std::_Any_data" = type { %"union.std::_Nocopy_types" }
%"union.std::_Nocopy_types" = type { { i64, i64 } }
%"class.std::function.0" = type { %"class.std::_Function_base", ptr }
%class.cmUVReadOnlyProcess = type { %"struct.cmUVReadOnlyProcess::SetupT", i8, i8, %"class.std::function.14", %"class.std::vector.16", %"struct.std::array", %struct.uv_process_options_s, %"struct.cm::uv_process_ptr", %class.cmUVPipeBuffer, %class.cmUVPipeBuffer }
%"struct.cmUVReadOnlyProcess::SetupT" = type <{ %"class.std::__cxx11::basic_string", %"class.std::vector.9", ptr, i8, [7 x i8] }>
%"class.std::__cxx11::basic_string" = type { %"struct.std::__cxx11::basic_string<char>::_Alloc_hider", i64, %union.anon.8 }
%"struct.std::__cxx11::basic_string<char>::_Alloc_hider" = type { ptr }
%union.anon.8 = type { i64, [8 x i8] }
%"class.std::vector.9" = type { %"struct.std::_Vector_base.10" }
%"struct.std::_Vector_base.10" = type { %"struct.std::_Vector_base<std::__cxx11::basic_string<char>, std::allocator<std::__cxx11::basic_string<char>>>::_Vector_impl" }
%"struct.std::_Vector_base<std::__cxx11::basic_string<char>, std::allocator<std::__cxx11::basic_string<char>>>::_Vector_impl" = type { %"struct.std::_Vector_base<std::__cxx11::basic_string<char>, std::allocator<std::__cxx11::basic_string<char>>>::_Vector_impl_data" }
%"struct.std::_Vector_base<std::__cxx11::basic_string<char>, std::allocator<std::__cxx11::basic_string<char>>>::_Vector_impl_data" = type { ptr, ptr, ptr }
%"class.std::function.14" = type { %"class.std::_Function_base", ptr }
%"class.std::vector.16" = type { %"struct.std::_Vector_base.17" }
%"struct.std::_Vector_base.17" = type { %"struct.std::_Vector_base<const char *, std::allocator<const char *>>::_Vector_impl" }
%"struct.std::_Vector_base<const char *, std::allocator<const char *>>::_Vector_impl" = type { %"struct.std::_Vector_base<const char *, std::allocator<const char *>>::_Vector_impl_data" }
%"struct.std::_Vector_base<const char *, std::allocator<const char *>>::_Vector_impl_data" = type { ptr, ptr, ptr }
%"struct.std::array" = type { [3 x %struct.uv_stdio_container_s] }
%struct.uv_stdio_container_s = type { i32, %union.anon.21 }
%union.anon.21 = type { ptr }
%struct.uv_process_options_s = type { ptr, ptr, ptr, ptr, ptr, i32, i32, ptr, i32, i32, ptr, i64 }
%"struct.cm::uv_process_ptr" = type { %"class.cm::uv_handle_ptr_.22" }
%"class.cm::uv_handle_ptr_.22" = type { %"class.cm::uv_handle_ptr_base_.23" }
%"class.cm::uv_handle_ptr_base_.23" = type { %"class.std::shared_ptr.24" }
%"class.std::shared_ptr.24" = type { %"class.std::__shared_ptr.25" }
%"class.std::__shared_ptr.25" = type { ptr, %"class.std::__shared_count" }

; Function Attrs: mustprogress uwtable
define dso_local void @_ZN19cmUVReadOnlyProcess5setupEPN12cmWorkerPool14ProcessResultTEbRKSt6vectorINSt7__cxx1112basic_stringIcSt11char_traitsIcESaIcEEESaIS9_EERKS9_(ptr noundef nonnull align 8 dereferenceable(488) %0, ptr noundef %1, i1 noundef zeroext %2, ptr noundef nonnull align 8 dereferenceable(24) %3, ptr noundef nonnull align 8 dereferenceable(32) %4) #0 align 2 {
  %6 = alloca ptr, align 8
  %7 = alloca ptr, align 8
  %8 = alloca i8, align 1
  %9 = alloca ptr, align 8
  %10 = alloca ptr, align 8
  store ptr %0, ptr %6, align 8
  store ptr %1, ptr %7, align 8
  %11 = zext i1 %2 to i8
  store i8 %11, ptr %8, align 1
  store ptr %3, ptr %9, align 8
  store ptr %4, ptr %10, align 8
  %12 = load ptr, ptr %6, align 8
  %13 = load ptr, ptr %10, align 8
  %14 = getelementptr inbounds %class.cmUVReadOnlyProcess, ptr %12, i32 0, i32 0
  %15 = getelementptr inbounds %"struct.cmUVReadOnlyProcess::SetupT", ptr %14, i32 0, i32 0
  %16 = call noundef nonnull align 8 dereferenceable(32) ptr @_ZNSt7__cxx1112basic_stringIcSt11char_traitsIcESaIcEEaSERKS4_(ptr noundef nonnull align 8 dereferenceable(32) %15, ptr noundef nonnull align 8 dereferenceable(32) %13)
  %17 = load ptr, ptr %9, align 8
  %18 = getelementptr inbounds %class.cmUVReadOnlyProcess, ptr %12, i32 0, i32 0
  %19 = getelementptr inbounds %"struct.cmUVReadOnlyProcess::SetupT", ptr %18, i32 0, i32 1
  %20 = call noundef nonnull align 8 dereferenceable(24) ptr @_ZNSt6vectorINSt7__cxx1112basic_stringIcSt11char_traitsIcESaIcEEESaIS5_EEaSERKS7_(ptr noundef nonnull align 8 dereferenceable(24) %19, ptr noundef nonnull align 8 dereferenceable(24) %17)
  %21 = load ptr, ptr %7, align 8
  %22 = getelementptr inbounds %class.cmUVReadOnlyProcess, ptr %12, i32 0, i32 0
  %23 = getelementptr inbounds %"struct.cmUVReadOnlyProcess::SetupT", ptr %22, i32 0, i32 2
  store ptr %21, ptr %23, align 8
  %24 = load i8, ptr %8, align 1
  %25 = trunc i8 %24 to i1
  %26 = getelementptr inbounds %class.cmUVReadOnlyProcess, ptr %12, i32 0, i32 0
  %27 = getelementptr inbounds %"struct.cmUVReadOnlyProcess::SetupT", ptr %26, i32 0, i32 3
  %28 = zext i1 %25 to i8
  store i8 %28, ptr %27, align 8
  ret void
}