; Function Attrs: mustprogress uwtable
define dso_local void @_ZN19cmUVReadOnlyProcess5setupEPN12cmWorkerPool14ProcessResultTEbRKSt6vectorINSt7__cxx1112basic_stringIcSt11char_traitsIcESaIcEEESaIS9_EERKS9_(ptr noundef nonnull align 8 dereferenceable(488) %0, ptr noundef %1, i1 noundef zeroext %2, ptr noundef nonnull align 8 dereferenceable(24) %3, ptr noundef nonnull align 8 dereferenceable(32) %4) local_unnamed_addr #0 align 2 {
  %6 = zext i1 %2 to i8
  %7 = tail call noundef nonnull align 8 dereferenceable(32) ptr @_ZNSt7__cxx1112basic_stringIcSt11char_traitsIcESaIcEEaSERKS4_(ptr noundef nonnull align 8 dereferenceable(32) %0, ptr noundef nonnull align 8 dereferenceable(32) %4)
  %8 = getelementptr inbounds i8, ptr %0, i64 32
  %9 = tail call noundef nonnull align 8 dereferenceable(24) ptr @_ZNSt6vectorINSt7__cxx1112basic_stringIcSt11char_traitsIcESaIcEEESaIS5_EEaSERKS7_(ptr noundef nonnull align 8 dereferenceable(24) %8, ptr noundef nonnull align 8 dereferenceable(24) %3)
  %10 = getelementptr inbounds i8, ptr %0, i64 56
  store ptr %1, ptr %10, align 8
  %11 = getelementptr inbounds i8, ptr %0, i64 64
  store i8 %6, ptr %11, align 8
  ret void
}